target datalayout = "e-m:e-p270:32:32-p271:32:32-p272:64:64-i64:64-i128:128-f80:128-n8:16:32:64-S128"
target triple = "x86_64-pc-linux-gnu"

%class.ImageViewer = type { %class.QMainWindow, ptr, ptr, ptr, ptr, double, ptr, ptr, ptr, ptr, ptr, ptr, ptr, ptr, ptr, ptr }
%class.QMainWindow = type { %class.QWidget }
%class.QWidget = type { %class.QObject, %class.QPaintDevice.base, ptr }
%class.QObject = type { ptr, %class.QScopedPointer }
%class.QScopedPointer = type { ptr }
%class.QPaintDevice.base = type <{ ptr, i16 }>

; Function Attrs: mustprogress uwtable
define void @_ZN11ImageViewer13updateActionsEv(ptr noundef nonnull align 8 dereferenceable(160) %0) #0 align 2 {
  %2 = alloca ptr, align 8
  store ptr %0, ptr %2, align 8, !tbaa !3
  %3 = load ptr, ptr %2, align 8
  %4 = getelementptr inbounds nuw %class.ImageViewer, ptr %3, i32 0, i32 9
  %5 = load ptr, ptr %4, align 8, !tbaa !40
  %6 = getelementptr inbounds nuw %class.ImageViewer, ptr %3, i32 0, i32 12
  %7 = load ptr, ptr %6, align 8, !tbaa !43
  %8 = call noundef zeroext i1 @_ZNK7QAction9isCheckedEv(ptr noundef nonnull align 8 dereferenceable(16) %7)
  %9 = xor i1 %8, true
  call void @_ZN7QAction10setEnabledEb(ptr noundef nonnull align 8 dereferenceable(16) %5, i1 noundef zeroext %9)
  %10 = getelementptr inbounds nuw %class.ImageViewer, ptr %3, i32 0, i32 10
  %11 = load ptr, ptr %10, align 8, !tbaa !41
  %12 = getelementptr inbounds nuw %class.ImageViewer, ptr %3, i32 0, i32 12
  %13 = load ptr, ptr %12, align 8, !tbaa !43
  %14 = call noundef zeroext i1 @_ZNK7QAction9isCheckedEv(ptr noundef nonnull align 8 dereferenceable(16) %13)
  %15 = xor i1 %14, true
  call void @_ZN7QAction10setEnabledEb(ptr noundef nonnull align 8 dereferenceable(16) %11, i1 noundef zeroext %15)
  %16 = getelementptr inbounds nuw %class.ImageViewer, ptr %3, i32 0, i32 11
  %17 = load ptr, ptr %16, align 8, !tbaa !42
  %18 = getelementptr inbounds nuw %class.ImageViewer, ptr %3, i32 0, i32 12
  %19 = load ptr, ptr %18, align 8, !tbaa !43
  %20 = call noundef zeroext i1 @_ZNK7QAction9isCheckedEv(ptr noundef nonnull align 8 dereferenceable(16) %19)
  %21 = xor i1 %20, true
  call void @_ZN7QAction10setEnabledEb(ptr noundef nonnull align 8 dereferenceable(16) %17, i1 noundef zeroext %21)
  ret void
}

; Function Attrs: mustprogress uwtable
define void @_ZN11ImageViewer10normalSizeEv(ptr noundef nonnull align 8 dereferenceable(160) %0) #0 align 2 {
  %2 = alloca ptr, align 8
  store ptr %0, ptr %2, align 8, !tbaa !3
  %3 = load ptr, ptr %2, align 8
  %4 = getelementptr inbounds nuw %class.ImageViewer, ptr %3, i32 0, i32 3
  %5 = load ptr, ptr %4, align 8, !tbaa !10
  call void @_ZN7QWidget10adjustSizeEv(ptr noundef nonnull align 8 dereferenceable(40) %5)
  %6 = getelementptr inbounds nuw %class.ImageViewer, ptr %3, i32 0, i32 5
  store double 1.000000e+00, ptr %6, align 8, !tbaa !60
  ret void
}

; Function Attrs: mustprogress uwtable
define void @_ZN11ImageViewer11fitToWindowEv(ptr noundef nonnull align 8 dereferenceable(160) %0) #0 align 2 {
  %2 = alloca ptr, align 8
  %3 = alloca i8, align 1
  store ptr %0, ptr %2, align 8, !tbaa !3
  %4 = load ptr, ptr %2, align 8
  call void @llvm.lifetime.start.p0(i64 1, ptr %3) #12
  %5 = getelementptr inbounds nuw %class.ImageViewer, ptr %4, i32 0, i32 12
  %6 = load ptr, ptr %5, align 8, !tbaa !43
  %7 = call noundef zeroext i1 @_ZNK7QAction9isCheckedEv(ptr noundef nonnull align 8 dereferenceable(16) %6)
  %8 = zext i1 %7 to i8
  store i8 %8, ptr %3, align 1, !tbaa !72
  %9 = getelementptr inbounds nuw %class.ImageViewer, ptr %4, i32 0, i32 4
  %10 = load ptr, ptr %9, align 8, !tbaa !27
  %11 = load i8, ptr %3, align 1, !tbaa !72, !range !74, !noundef !75
  %12 = trunc i8 %11 to i1
  call void @_ZN11QScrollArea18setWidgetResizableEb(ptr noundef nonnull align 8 dereferenceable(40) %10, i1 noundef zeroext %12)
  %13 = load i8, ptr %3, align 1, !tbaa !72, !range !74, !noundef !75
  %14 = trunc i8 %13 to i1
  br i1 %14, label %16, label %15

15:                                               ; preds = %1
  call void @_ZN11ImageViewer10normalSizeEv(ptr noundef nonnull align 8 dereferenceable(160) %4)
  br label %16

16:                                               ; preds = %15, %1
  call void @_ZN11ImageViewer13updateActionsEv(ptr noundef nonnull align 8 dereferenceable(160) %4)
  call void @llvm.lifetime.end.p0(i64 1, ptr %3) #12
  ret void
}