; Function Attrs: mustprogress uwtable
define void @_ZN11ImageViewer11fitToWindowEv(ptr noundef nonnull align 8 captures(none) dereferenceable(160) %0) #0 align 2 {
  %2 = getelementptr inbounds nuw i8, ptr %0, i64 128
  %3 = load ptr, ptr %2, align 8, !tbaa !70
  %4 = tail call noundef zeroext i1 @_ZNK7QAction9isCheckedEv(ptr noundef nonnull align 8 dereferenceable(16) %3)
  %5 = getelementptr inbounds nuw i8, ptr %0, i64 64
  %6 = load ptr, ptr %5, align 8, !tbaa !25
  tail call void @_ZN11QScrollArea18setWidgetResizableEb(ptr noundef nonnull align 8 dereferenceable(40) %6, i1 noundef zeroext %4)
  br i1 %4, label %11, label %7

7:                                                ; preds = %1
  %8 = getelementptr inbounds nuw i8, ptr %0, i64 56
  %9 = load ptr, ptr %8, align 8, !tbaa !6
  tail call void @_ZN7QWidget10adjustSizeEv(ptr noundef nonnull align 8 dereferenceable(40) %9)
  %10 = getelementptr inbounds nuw i8, ptr %0, i64 72
  store double 1.000000e+00, ptr %10, align 8, !tbaa !89
  br label %11

11:                                               ; preds = %7, %1
  %12 = getelementptr inbounds nuw i8, ptr %0, i64 104
  %13 = load ptr, ptr %12, align 8, !tbaa !58
  %14 = load ptr, ptr %2, align 8, !tbaa !70
  %15 = tail call noundef zeroext i1 @_ZNK7QAction9isCheckedEv(ptr noundef nonnull align 8 dereferenceable(16) %14)
  %16 = xor i1 %15, true
  tail call void @_ZN7QAction10setEnabledEb(ptr noundef nonnull align 8 dereferenceable(16) %13, i1 noundef zeroext %16)
  %17 = getelementptr inbounds nuw i8, ptr %0, i64 112
  %18 = load ptr, ptr %17, align 8, !tbaa !62
  %19 = load ptr, ptr %2, align 8, !tbaa !70
  %20 = tail call noundef zeroext i1 @_ZNK7QAction9isCheckedEv(ptr noundef nonnull align 8 dereferenceable(16) %19)
  %21 = xor i1 %20, true
  tail call void @_ZN7QAction10setEnabledEb(ptr noundef nonnull align 8 dereferenceable(16) %18, i1 noundef zeroext %21)
  %22 = getelementptr inbounds nuw i8, ptr %0, i64 120
  %23 = load ptr, ptr %22, align 8, !tbaa !66
  %24 = load ptr, ptr %2, align 8, !tbaa !70
  %25 = tail call noundef zeroext i1 @_ZNK7QAction9isCheckedEv(ptr noundef nonnull align 8 dereferenceable(16) %24)
  %26 = xor i1 %25, true
  tail call void @_ZN7QAction10setEnabledEb(ptr noundef nonnull align 8 dereferenceable(16) %23, i1 noundef zeroext %26)
  ret void
}